Certificate:
    Data:
        Version: 3 (0x2)
        Serial Number: 4099 (0x1003)
    Signature Algorithm: sha256WithRSAEncryption
        Issuer: C=HK, ST=Hong Kong, L=Hong Kong, O=srxvpn, OU=srxvpn, CN=ca.srxvpn.net/emailAddress=jackytsui@juniper.net
        Validity
            Not Before: Jun 20 05:49:55 2019 GMT
            Not After : Jun 19 05:49:55 2020 GMT
        Subject: C=HK, ST=Hong Kong, O=srxvpn, OU=srxvpn, CN=*.srxvpn.net/emailAddress=admin@srxvpn.net
        Subject Public Key Info:
            Public Key Algorithm: rsaEncryption
                Public-Key: (2048 bit)
                Modulus:
                    00:c7:fc:4c:21:31:bb:81:0c:0d:eb:42:a8:80:fb:
                    4f:87:47:21:ff:1a:10:81:34:bd:f5:f7:b8:e5:2b:
                    94:04:8b:af:e7:28:a4:be:ff:35:67:9c:18:a1:02:
                    4e:00:9c:7f:d3:5f:01:e5:38:3a:e1:9b:8e:10:fd:
                    5d:d1:44:c5:fd:5f:cb:dc:2b:f6:11:d0:54:f9:41:
                    0e:b7:f1:2b:ea:d1:85:61:39:be:5c:eb:4e:6a:07:
                    c2:37:7f:12:af:aa:5c:5b:b3:39:0c:80:bc:7f:fa:
                    26:50:d1:15:be:cf:59:26:fe:f4:77:07:99:21:d6:
                    cf:2a:69:5c:12:91:d9:92:fe:ce:40:f8:8c:49:0b:
                    ff:c6:30:68:0b:af:6c:3d:40:62:da:cb:f3:60:37:
                    8f:77:f5:99:31:69:48:16:e2:ed:6f:73:40:81:72:
                    2d:e3:64:80:13:6c:b1:a4:25:d7:6d:8f:67:02:ab:
                    98:8b:43:3f:3c:cd:3b:31:f5:99:b6:7c:e2:11:3f:
                    1a:09:ac:bb:a1:4e:58:f5:7e:95:c0:d4:53:ec:5f:
                    65:37:ab:92:33:ac:81:29:d7:43:8a:56:97:82:f5:
                    10:6a:9e:07:bc:c4:4b:8c:f9:be:7a:c6:37:7b:1c:
                    ee:20:c2:5e:53:00:39:86:ee:5c:f9:1f:52:99:d4:
                    37:69
                Exponent: 65537 (0x10001)
        X509v3 extensions:
            X509v3 Basic Constraints: 
                CA:FALSE
            Netscape Comment: 
                OpenSSL Generated Certificate
            X509v3 Subject Key Identifier: 
                7B:17:58:25:8A:F1:D2:FC:34:51:EE:B9:66:A6:BA:44:EC:99:F5:2D
            X509v3 Authority Key Identifier: 
                keyid:E6:9D:84:33:53:14:CB:1F:94:9D:E4:33:C0:2C:49:6F:3C:E0:0B:7A

    Signature Algorithm: sha256WithRSAEncryption
         25:08:7a:e1:2c:16:8a:44:51:3b:ec:c4:70:56:a5:14:af:be:
         3f:f7:64:08:61:69:86:6c:db:09:50:10:a2:43:d0:35:5f:c7:
         b5:fc:4d:91:01:ef:36:f1:20:ae:c3:f7:6c:80:fc:00:17:df:
         58:4d:46:b0:d6:52:e9:91:06:cb:3c:8c:8f:52:6c:f2:b2:06:
         0a:c3:73:dd:42:a6:3d:ed:55:9a:1c:3d:38:1e:4d:88:b7:c1:
         83:ef:a2:bb:c7:68:93:90:c1:60:bd:3f:64:25:bd:fd:53:f1:
         27:6d:cb:c5:f8:c9:ad:52:2b:0d:e1:d2:d1:e1:c3:6a:4e:5f:
         2d:6c:a0:10:03:38:2f:86:9a:67:f6:4e:05:65:4e:67:2e:40:
         51:fa:52:cd:b2:07:df:89:c8:9f:ee:79:bd:1f:a2:32:49:d7:
         cd:56:08:b2:a2:f4:b1:3e:ff:df:0c:94:c2:20:99:3c:f8:61:
         ce:4f:cd:f8:22:95:d3:83:d9:b6:cc:52:77:56:40:03:92:62:
         82:16:4d:f6:d6:35:41:00:6a:e9:ad:2f:3f:3c:0d:1d:25:b3:
         c9:9c:e9:a1:7a:0a:7a:43:36:c6:80:88:4e:10:33:10:94:26:
         80:e5:38:36:d6:d4:b5:7c:26:f6:80:01:03:7c:51:b8:87:bb:
         c8:ff:3b:b5:c0:15:01:12:04:60:92:e5:a4:e7:51:af:b3:1f:
         9c:52:2f:72:73:f5:5c:ac:f1:e6:85:3c:60:27:a6:f3:4e:0b:
         15:f7:04:5b:ba:9d:6e:33:12:b8:1c:27:22:d4:fe:0d:79:c5:
         02:ad:88:ce:44:a5:f9:92:08:ce:ab:0f:d9:82:6a:5e:26:0f:
         b9:e5:7c:cb:d7:f0:cd:bb:c1:3d:e5:43:14:bd:54:7c:c2:17:
         b0:6c:6b:ee:67:30:64:9e:0d:d3:39:c3:b8:e3:9c:60:bf:fc:
         13:05:1a:02:28:f6:59:4c:eb:26:80:7c:f4:f7:21:3c:64:21:
         4d:81:a2:c8:0d:99:3c:3f:8b:24:d6:91:ca:fd:9b:79:16:cf:
         d5:70:0b:cf:cc:7f:49:a6:e7:22:80:88:7a:66:9f:46:bc:f3:
         47:4a:d3:bd:25:78:41:71:8c:c0:93:aa:30:5d:e5:19:c3:be:
         4e:99:b3:fd:01:0a:4a:ae:af:bf:a3:23:a5:62:0c:9c:a0:55:
         d2:ec:f7:d4:b0:2e:d1:09:67:d5:29:25:cd:91:4c:24:59:ff:
         da:e6:0f:85:64:85:9e:69:14:d7:27:14:3e:a6:6a:c1:0f:c8:
         5c:a2:a5:ce:31:53:8c:5b:83:58:1d:60:98:0b:ad:69:98:53:
         24:44:0c:0e:f2:3a:16:b1
-----BEGIN CERTIFICATE-----
MIIFCDCCAvCgAwIBAgICEAMwDQYJKoZIhvcNAQELBQAwgZUxCzAJBgNVBAYTAkhL
MRIwEAYDVQQIDAlIb25nIEtvbmcxEjAQBgNVBAcMCUhvbmcgS29uZzEPMA0GA1UE
CgwGc3J4dnBuMQ8wDQYDVQQLDAZzcnh2cG4xFjAUBgNVBAMMDWNhLnNyeHZwbi5u
ZXQxJDAiBgkqhkiG9w0BCQEWFWphY2t5dHN1aUBqdW5pcGVyLm5ldDAeFw0xOTA2
MjAwNTQ5NTVaFw0yMDA2MTkwNTQ5NTVaMHsxCzAJBgNVBAYTAkhLMRIwEAYDVQQI
DAlIb25nIEtvbmcxDzANBgNVBAoMBnNyeHZwbjEPMA0GA1UECwwGc3J4dnBuMRUw
EwYDVQQDDAwqLnNyeHZwbi5uZXQxHzAdBgkqhkiG9w0BCQEWEGFkbWluQHNyeHZw
bi5uZXQwggEiMA0GCSqGSIb3DQEBAQUAA4IBDwAwggEKAoIBAQDH/EwhMbuBDA3r
QqiA+0+HRyH/GhCBNL3197jlK5QEi6/nKKS+/zVnnBihAk4AnH/TXwHlODrhm44Q
/V3RRMX9X8vcK/YR0FT5QQ638Svq0YVhOb5c605qB8I3fxKvqlxbszkMgLx/+iZQ
0RW+z1km/vR3B5kh1s8qaVwSkdmS/s5A+IxJC//GMGgLr2w9QGLay/NgN4939Zkx
aUgW4u1vc0CBci3jZIATbLGkJddtj2cCq5iLQz88zTsx9Zm2fOIRPxoJrLuhTlj1
fpXA1FPsX2U3q5IzrIEp10OKVpeC9RBqnge8xEuM+b56xjd7HO4gwl5TADmG7lz5
H1KZ1DdpAgMBAAGjezB5MAkGA1UdEwQCMAAwLAYJYIZIAYb4QgENBB8WHU9wZW5T
U0wgR2VuZXJhdGVkIENlcnRpZmljYXRlMB0GA1UdDgQWBBR7F1glivHS/DRR7rlm
prpE7Jn1LTAfBgNVHSMEGDAWgBTmnYQzUxTLH5Sd5DPALElvPOALejANBgkqhkiG
9w0BAQsFAAOCAgEAJQh64SwWikRRO+zEcFalFK++P/dkCGFphmzbCVAQokPQNV/H
tfxNkQHvNvEgrsP3bID8ABffWE1GsNZS6ZEGyzyMj1Js8rIGCsNz3UKmPe1Vmhw9
OB5NiLfBg++iu8dok5DBYL0/ZCW9/VPxJ23LxfjJrVIrDeHS0eHDak5fLWygEAM4
L4aaZ/ZOBWVOZy5AUfpSzbIH34nIn+55vR+iMknXzVYIsqL0sT7/3wyUwiCZPPhh
zk/N+CKV04PZtsxSd1ZAA5JighZN9tY1QQBq6a0vPzwNHSWzyZzpoXoKekM2xoCI
ThAzEJQmgOU4NtbUtXwm9oABA3xRuIe7yP87tcAVARIEYJLlpOdRr7MfnFIvcnP1
XKzx5oU8YCem804LFfcEW7qdbjMSuBwnItT+DXnFAq2IzkSl+ZIIzqsP2YJqXiYP
ueV8y9fwzbvBPeVDFL1UfMIXsGxr7mcwZJ4N0znDuOOcYL/8EwUaAij2WUzrJoB8
9PchPGQhTYGiyA2ZPD+LJNaRyv2beRbP1XALz8x/SabnIoCIemafRrzzR0rTvSV4
QXGMwJOqMF3lGcO+Tpmz/QEKSq6vv6MjpWIMnKBV0uz31LAu0Qln1SklzZFMJFn/
2uYPhWSFnmkU1ycUPqZqwQ/IXKKlzjFTjFuDWB1gmAutaZhTJEQMDvI6FrE=
-----END CERTIFICATE-----
